target datalayout = "e-m:e-p270:32:32-p271:32:32-p272:64:64-i64:64-i128:128-f80:128-n8:16:32:64-S128"
target triple = "x86_64-pc-linux-gnu"

@.str.177 = private unnamed_addr constant [7 x i8] c"megaco\00", align 1
@.str.184 = private unnamed_addr constant [9 x i8] c"ctx_info\00", align 1
@.str.191 = private unnamed_addr constant [5 x i8] c"h248\00", align 1
@.str.461 = private unnamed_addr constant [150 x i8] c"Track Context option at Protocols -> MEGACO and Protocols -> H248 preferences\0Ahas to be set to true to enable measurement of service response times.\0A\00", align 1

; Function Attrs: null_pointer_is_valid sspstrong uwtable
define internal void @megacostat_filtercheck(ptr noundef %0, ptr noundef %1, ptr noundef %2) #0 {
  %4 = alloca ptr, align 8
  %5 = alloca ptr, align 8
  %6 = alloca ptr, align 8
  %7 = alloca ptr, align 8
  %8 = alloca ptr, align 8
  %9 = alloca i32, align 4
  store ptr %0, ptr %4, align 8
  store ptr %1, ptr %5, align 8
  store ptr %2, ptr %6, align 8
  call void @llvm.lifetime.start.p0(i64 8, ptr %7) #12
  call void @llvm.lifetime.start.p0(i64 8, ptr %8) #12
  %10 = call ptr @prefs_find_module(ptr noundef @.str.177)
  %11 = call ptr @prefs_find_preference(ptr noundef %10, ptr noundef @.str.184)
  store ptr %11, ptr %7, align 8
  %12 = call ptr @prefs_find_module(ptr noundef @.str.191)
  %13 = call ptr @prefs_find_preference(ptr noundef %12, ptr noundef @.str.184)
  store ptr %13, ptr %8, align 8
  %14 = load ptr, ptr %7, align 8
  %15 = icmp ne ptr %14, null
  br i1 %15, label %16, label %19

16:                                               ; preds = %3
  %17 = load ptr, ptr %8, align 8
  %18 = icmp ne ptr %17, null
  br i1 %18, label %20, label %19

19:                                               ; preds = %16, %3
  store i32 1, ptr %9, align 4
  br label %30

20:                                               ; preds = %16
  %21 = load ptr, ptr %7, align 8
  %22 = call zeroext i1 @prefs_get_bool_value(ptr noundef %21, i32 noundef 2)
  br i1 %22, label %23, label %26

23:                                               ; preds = %20
  %24 = load ptr, ptr %8, align 8
  %25 = call zeroext i1 @prefs_get_bool_value(ptr noundef %24, i32 noundef 2)
  br i1 %25, label %29, label %26

26:                                               ; preds = %23, %20
  %27 = call noalias ptr (ptr, ptr, ...) @wmem_strdup_printf(ptr noundef null, ptr noundef @.str.461)
  %28 = load ptr, ptr %6, align 8
  store ptr %27, ptr %28, align 8
  br label %29

29:                                               ; preds = %26, %23
  store i32 0, ptr %9, align 4
  br label %30

30:                                               ; preds = %29, %19
  call void @llvm.lifetime.end.p0(i64 8, ptr %8) #12
  call void @llvm.lifetime.end.p0(i64 8, ptr %7) #12
  %31 = load i32, ptr %9, align 4
  switch i32 %31, label %33 [
    i32 0, label %32
    i32 1, label %32
  ]

32:                                               ; preds = %30, %30
  ret void

33:                                               ; preds = %30
  unreachable
}