; Function Attrs: null_pointer_is_valid sspstrong uwtable
define internal void @megacostat_filtercheck(ptr readnone captures(none) %0, ptr readnone captures(none) %1, ptr noundef writeonly captures(none) %2) #0 {
  %4 = tail call ptr @prefs_find_module(ptr noundef nonnull @.str.177)
  %5 = tail call ptr @prefs_find_preference(ptr noundef %4, ptr noundef nonnull @.str.184)
  %6 = tail call ptr @prefs_find_module(ptr noundef nonnull @.str.191)
  %7 = tail call ptr @prefs_find_preference(ptr noundef %6, ptr noundef nonnull @.str.184)
  %8 = icmp ne ptr %5, null
  %9 = icmp ne ptr %7, null
  %or.cond = select i1 %8, i1 %9, i1 false
  br i1 %or.cond, label %10, label %16

10:                                               ; preds = %3
  %11 = tail call zeroext i1 @prefs_get_bool_value(ptr noundef nonnull %5, i32 noundef 2)
  br i1 %11, label %12, label %14

12:                                               ; preds = %10
  %13 = tail call zeroext i1 @prefs_get_bool_value(ptr noundef nonnull %7, i32 noundef 2)
  br i1 %13, label %16, label %14

14:                                               ; preds = %12, %10
  %15 = tail call noalias ptr (ptr, ptr, ...) @wmem_strdup_printf(ptr noundef null, ptr noundef nonnull @.str.461)
  store ptr %15, ptr %2, align 8
  br label %16

16:                                               ; preds = %12, %14, %3
  ret void
}